; ModuleID = '37/1108.c'
source_filename = "37/1108.c"
target datalayout = "e-m:e-p270:32:32-p271:32:32-p272:64:64-i64:64-f80:128-n8:16:32:64-S128"
target triple = "x86_64-pc-linux-gnu"

%struct.node = type { [100010 x i8], [100010 x i32] }

@.str = private unnamed_addr constant [3 x i8] c"%d\00", align 1
@x = common dso_local global %struct.node zeroinitializer, align 4
@.str.1 = private unnamed_addr constant [4 x i8] c"%c\0A\00", align 1
@.str.2 = private unnamed_addr constant [4 x i8] c"no\0A\00", align 1

; Function Attrs: noinline nounwind uwtable
define dso_local void @main() #0 {
  %1 = alloca i32, align 4
  %2 = alloca i32, align 4
  %3 = alloca i32, align 4
  %4 = alloca i32, align 4
  %5 = alloca [100010 x i32], align 16
  %6 = alloca i32, align 4
  %7 = alloca [2 x i8], align 1
  %8 = bitcast [100010 x i32]* %5 to i8*
  call void @llvm.memset.p0i8.i64(i8* align 16 %8, i8 0, i64 400040, i1 false)
  %9 = call i32 (i8*, ...) @__isoc99_scanf(i8* getelementptr inbounds ([3 x i8], [3 x i8]* @.str, i64 0, i64 0), i32* %1)
  %10 = getelementptr inbounds [2 x i8], [2 x i8]* %7, i64 0, i64 0
  %11 = call i32 (i8*, ...) bitcast (i32 (...)* @gets to i32 (i8*, ...)*)(i8* %10)
  store i32 0, i32* %3, align 4
  br label %12

12:                                               ; preds = %126, %0
  %13 = load i32, i32* %3, align 4
  %14 = load i32, i32* %1, align 4
  %15 = icmp slt i32 %13, %14
  br i1 %15, label %16, label %129

16:                                               ; preds = %12
  store i32 0, i32* %2, align 4
  br label %17

17:                                               ; preds = %24, %16
  %18 = load i32, i32* %2, align 4
  %19 = icmp slt i32 %18, 100010
  br i1 %19, label %20, label %27

20:                                               ; preds = %17
  %21 = load i32, i32* %2, align 4
  %22 = sext i32 %21 to i64
  %23 = getelementptr inbounds [100010 x i32], [100010 x i32]* getelementptr inbounds (%struct.node, %struct.node* @x, i32 0, i32 1), i64 0, i64 %22
  store i32 1, i32* %23, align 4
  br label %24

24:                                               ; preds = %20
  %25 = load i32, i32* %2, align 4
  %26 = add nsw i32 %25, 1
  store i32 %26, i32* %2, align 4
  br label %17

27:                                               ; preds = %17
  %28 = call i32 (i8*, ...) bitcast (i32 (...)* @gets to i32 (i8*, ...)*)(i8* getelementptr inbounds (%struct.node, %struct.node* @x, i32 0, i32 0, i64 0))
  %29 = call i64 @strlen(i8* getelementptr inbounds (%struct.node, %struct.node* @x, i32 0, i32 0, i64 0)) #4
  %30 = trunc i64 %29 to i32
  store i32 %30, i32* %6, align 4
  store i32 0, i32* %2, align 4
  br label %31

31:                                               ; preds = %88, %27
  %32 = load i32, i32* %2, align 4
  %33 = load i32, i32* %6, align 4
  %34 = sub nsw i32 %33, 1
  %35 = icmp slt i32 %32, %34
  br i1 %35, label %36, label %91

36:                                               ; preds = %31
  %37 = load i32, i32* %2, align 4
  %38 = sext i32 %37 to i64
  %39 = getelementptr inbounds [100010 x i32], [100010 x i32]* %5, i64 0, i64 %38
  store i32 1, i32* %39, align 4
  %40 = load i32, i32* %2, align 4
  %41 = load i32, i32* %6, align 4
  %42 = sub nsw i32 %41, 2
  %43 = icmp eq i32 %40, %42
  br i1 %43, label %44, label %49

44:                                               ; preds = %36
  %45 = load i32, i32* %2, align 4
  %46 = add nsw i32 %45, 1
  %47 = sext i32 %46 to i64
  %48 = getelementptr inbounds [100010 x i32], [100010 x i32]* %5, i64 0, i64 %47
  store i32 1, i32* %48, align 4
  br label %49

49:                                               ; preds = %44, %36
  %50 = load i32, i32* %2, align 4
  %51 = add nsw i32 %50, 1
  store i32 %51, i32* %4, align 4
  br label %52

52:                                               ; preds = %84, %49
  %53 = load i32, i32* %4, align 4
  %54 = load i32, i32* %6, align 4
  %55 = icmp slt i32 %53, %54
  br i1 %55, label %56, label %87

56:                                               ; preds = %52
  %57 = load i32, i32* %4, align 4
  %58 = sext i32 %57 to i64
  %59 = getelementptr inbounds [100010 x i8], [100010 x i8]* getelementptr inbounds (%struct.node, %struct.node* @x, i32 0, i32 0), i64 0, i64 %58
  %60 = load i8, i8* %59, align 1
  %61 = sext i8 %60 to i32
  %62 = load i32, i32* %2, align 4
  %63 = sext i32 %62 to i64
  %64 = getelementptr inbounds [100010 x i8], [100010 x i8]* getelementptr inbounds (%struct.node, %struct.node* @x, i32 0, i32 0), i64 0, i64 %63
  %65 = load i8, i8* %64, align 1
  %66 = sext i8 %65 to i32
  %67 = icmp eq i32 %61, %66
  br i1 %67, label %68, label %83

68:                                               ; preds = %56
  %69 = load i32, i32* %2, align 4
  %70 = sext i32 %69 to i64
  %71 = getelementptr inbounds [100010 x i32], [100010 x i32]* getelementptr inbounds (%struct.node, %struct.node* @x, i32 0, i32 1), i64 0, i64 %70
  %72 = load i32, i32* %71, align 4
  %73 = icmp ne i32 %72, 0
  br i1 %73, label %74, label %83

74:                                               ; preds = %68
  %75 = load i32, i32* %2, align 4
  %76 = sext i32 %75 to i64
  %77 = getelementptr inbounds [100010 x i32], [100010 x i32]* %5, i64 0, i64 %76
  %78 = load i32, i32* %77, align 4
  %79 = add nsw i32 %78, 1
  store i32 %79, i32* %77, align 4
  %80 = load i32, i32* %4, align 4
  %81 = sext i32 %80 to i64
  %82 = getelementptr inbounds [100010 x i32], [100010 x i32]* getelementptr inbounds (%struct.node, %struct.node* @x, i32 0, i32 1), i64 0, i64 %81
  store i32 0, i32* %82, align 4
  br label %83

83:                                               ; preds = %74, %68, %56
  br label %84

84:                                               ; preds = %83
  %85 = load i32, i32* %4, align 4
  %86 = add nsw i32 %85, 1
  store i32 %86, i32* %4, align 4
  br label %52

87:                                               ; preds = %52
  br label %88

88:                                               ; preds = %87
  %89 = load i32, i32* %2, align 4
  %90 = add nsw i32 %89, 1
  store i32 %90, i32* %2, align 4
  br label %31

91:                                               ; preds = %31
  store i32 0, i32* %2, align 4
  br label %92

92:                                               ; preds = %116, %91
  %93 = load i32, i32* %2, align 4
  %94 = load i32, i32* %6, align 4
  %95 = icmp slt i32 %93, %94
  br i1 %95, label %96, label %119

96:                                               ; preds = %92
  %97 = load i32, i32* %2, align 4
  %98 = sext i32 %97 to i64
  %99 = getelementptr inbounds [100010 x i32], [100010 x i32]* %5, i64 0, i64 %98
  %100 = load i32, i32* %99, align 4
  %101 = icmp eq i32 %100, 1
  br i1 %101, label %102, label %115

102:                                              ; preds = %96
  %103 = load i32, i32* %2, align 4
  %104 = sext i32 %103 to i64
  %105 = getelementptr inbounds [100010 x i32], [100010 x i32]* getelementptr inbounds (%struct.node, %struct.node* @x, i32 0, i32 1), i64 0, i64 %104
  %106 = load i32, i32* %105, align 4
  %107 = icmp ne i32 %106, 0
  br i1 %107, label %108, label %115

108:                                              ; preds = %102
  %109 = load i32, i32* %2, align 4
  %110 = sext i32 %109 to i64
  %111 = getelementptr inbounds [100010 x i8], [100010 x i8]* getelementptr inbounds (%struct.node, %struct.node* @x, i32 0, i32 0), i64 0, i64 %110
  %112 = load i8, i8* %111, align 1
  %113 = sext i8 %112 to i32
  %114 = call i32 (i8*, ...) @printf(i8* getelementptr inbounds ([4 x i8], [4 x i8]* @.str.1, i64 0, i64 0), i32 %113)
  br label %119

115:                                              ; preds = %102, %96
  br label %116

116:                                              ; preds = %115
  %117 = load i32, i32* %2, align 4
  %118 = add nsw i32 %117, 1
  store i32 %118, i32* %2, align 4
  br label %92

119:                                              ; preds = %108, %92
  %120 = load i32, i32* %2, align 4
  %121 = load i32, i32* %6, align 4
  %122 = icmp eq i32 %120, %121
  br i1 %122, label %123, label %125

123:                                              ; preds = %119
  %124 = call i32 (i8*, ...) @printf(i8* getelementptr inbounds ([4 x i8], [4 x i8]* @.str.2, i64 0, i64 0))
  br label %125

125:                                              ; preds = %123, %119
  br label %126

126:                                              ; preds = %125
  %127 = load i32, i32* %3, align 4
  %128 = add nsw i32 %127, 1
  store i32 %128, i32* %3, align 4
  br label %12

129:                                              ; preds = %12
  ret void
}

; Function Attrs: argmemonly nounwind willreturn
declare void @llvm.memset.p0i8.i64(i8* nocapture writeonly, i8, i64, i1 immarg) #1

declare dso_local i32 @__isoc99_scanf(i8*, ...) #2

declare dso_local i32 @gets(...) #2

; Function Attrs: nounwind readonly
declare dso_local i64 @strlen(i8*) #3

declare dso_local i32 @printf(i8*, ...) #2


!llvm.module.flags = !{!0}
!llvm.ident = !{!1}

!0 = !{i32 1, !"wchar_size", i32 4}
!1 = !{!"clang version 10.0.0-4ubuntu1 "}
